target datalayout = "e-m:e-p270:32:32-p271:32:32-p272:64:64-i64:64-i128:128-f80:128-n8:16:32:64-S128"
target triple = "x86_64-pc-linux-gnu"

%"struct.llama_model_loader::llama_tensor_weight" = type { i16, i64, ptr }

; Function Attrs: mustprogress uwtable
define noundef ptr @_ZNK18llama_model_loader15get_tensor_metaEPKc(ptr noundef nonnull align 8 dereferenceable(320) %0, ptr noundef %1) #1 align 2 {
  %3 = alloca ptr, align 8
  %4 = alloca ptr, align 8
  %5 = alloca ptr, align 8
  %6 = alloca ptr, align 8
  %7 = alloca i32, align 4
  store ptr %0, ptr %4, align 8, !tbaa !7
  store ptr %1, ptr %5, align 8, !tbaa !115
  %8 = load ptr, ptr %4, align 8
  call void @llvm.lifetime.start.p0(i64 8, ptr %6) #25
  %9 = load ptr, ptr %5, align 8, !tbaa !115
  %10 = call noundef ptr @_ZNK18llama_model_loader10get_weightEPKc(ptr noundef nonnull align 8 dereferenceable(320) %8, ptr noundef %9)
  store ptr %10, ptr %6, align 8, !tbaa !132
  %11 = load ptr, ptr %6, align 8, !tbaa !132
  %12 = icmp ne ptr %11, null
  br i1 %12, label %14, label %13

13:                                               ; preds = %2
  store ptr null, ptr %3, align 8
  store i32 1, ptr %7, align 4
  br label %18

14:                                               ; preds = %2
  %15 = load ptr, ptr %6, align 8, !tbaa !132
  %16 = getelementptr inbounds nuw %"struct.llama_model_loader::llama_tensor_weight", ptr %15, i32 0, i32 2
  %17 = load ptr, ptr %16, align 8, !tbaa !134
  store ptr %17, ptr %3, align 8
  store i32 1, ptr %7, align 4
  br label %18

18:                                               ; preds = %14, %13
  call void @llvm.lifetime.end.p0(i64 8, ptr %6) #25
  %19 = load ptr, ptr %3, align 8
  ret ptr %19
}