; Function Attrs: mustprogress uwtable
define noundef ptr @_ZNK18llama_model_loader15get_tensor_metaEPKc(ptr noundef nonnull align 8 dereferenceable(320) %0, ptr noundef %1) local_unnamed_addr #1 align 2 {
  %3 = tail call noundef ptr @_ZNK18llama_model_loader10get_weightEPKc(ptr noundef nonnull align 8 dereferenceable(320) %0, ptr noundef %1)
  %.not = icmp eq ptr %3, null
  br i1 %.not, label %7, label %4

4:                                                ; preds = %2
  %5 = getelementptr inbounds nuw i8, ptr %3, i64 16
  %6 = load ptr, ptr %5, align 8, !tbaa !157
  br label %7

7:                                                ; preds = %2, %4
  %.0 = phi ptr [ %6, %4 ], [ null, %2 ]
  ret ptr %.0
}